#include <math.h>
#include <stdio.h>
#include <stdlib.h>
#include <string.h>
#include <iostream>
#include <iomanip>
using namespace std;

#define LEN 100
#define ASCII 100
#define MAX_N 100
#define MAX_M 100
#define MAX 100
#define ASC 100
#define null 0
#define Len 100
#define SUM 100
#define NUMBER 100
#define SIZE 100
#define MAXN 100
#define MAXSIZE 100
#define maxrow 100
#define maxcol 100
#define mx 100
#define NUM 100
#define ROW 100
#define COL 100
#define SIZEE 100
#define MAX_LEN 100
#define LIU 100
#define maxsize 100
#define NUM 100
#define NO 100
#define Null 0
#define ID_DIGITS 100
#define INT_MAX 100
#define INT_MIN 100
#define FALSE 0
#define TRUE 1
#define hang 100
#define lie 100
#define lll 100
#define LEM 100
#define K 100
#define INF 100
#define MONTH 12
#define true 1
#define PI 100
#define maxlen 100
#define maxinputint 100
#define STUDENT_NUM 100
#define TOTAL 100
#define LEN1 100
#define student_num 100
#define MAXLEN 100
#define MAXL 100
#define nMax 100
#define Vocabularysize 100
#define Sentencelength 100
#define LENGTH 100
#define ARRAY 100

void sort(int *a, int *b);
int main() {
	int n=0;
	int a=0;
	int x=1;
	int y=1;
	int z=0;
	int j=0;
	cin>>n;
	for(int b=1;b<=n;b=b+1)
	{
		cin>>a;
	    for(int i=1;i<=a;i=i+1)
	    {
	    	j=i%3;
	        if(j==2)
	        	y=x+z;
		    if(j==1)
			    x=y+z;
		    if(j==0)
			    z=x+y;
	    }
	    b=0;
	    int c=0;
	    b=max(x,y);
	    c=max(b,z);
	    cout<<c<<endl;
	    x=1;
	    y=1;
	    z=0;
	}
	return 0;
}
